; Function Attrs: nounwind uwtable
define internal range(i32 -2147483648, 1) i32 @config_input(ptr noundef readonly captures(none) %0) #2 {
  %2 = getelementptr inbounds nuw i8, ptr %0, i64 16
  %3 = load ptr, ptr %2, align 8, !tbaa !20
  %4 = getelementptr inbounds nuw i8, ptr %3, i64 72
  %5 = load ptr, ptr %4, align 8, !tbaa !4
  %6 = getelementptr inbounds nuw i8, ptr %0, i64 36
  %7 = load i32, ptr %6, align 4, !tbaa !29
  %8 = tail call i32 @av_pix_fmt_count_planes(i32 noundef %7) #7
  %9 = getelementptr inbounds nuw i8, ptr %5, i64 36
  store i32 %8, ptr %9, align 4, !tbaa !30
  %10 = getelementptr inbounds nuw i8, ptr %5, i64 20
  %11 = load i32, ptr %6, align 4, !tbaa !29
  %12 = getelementptr inbounds nuw i8, ptr %0, i64 40
  %13 = load i32, ptr %12, align 8, !tbaa !36
  %14 = tail call i32 @av_image_fill_linesizes(ptr noundef nonnull %10, i32 noundef %11, i32 noundef %13) #7
  %. = tail call i32 @llvm.smin.i32(i32 %14, i32 0)
  ret i32 %.
}